; Function Attrs: mustprogress nounwind uwtable
define hidden void @_ZN15ClassLoaderData11packages_doEPFvP12PackageEntryE(ptr noundef nonnull align 8 dereferenceable(160) %0, ptr noundef %1) local_unnamed_addr #0 align 2 {
  %3 = getelementptr inbounds i8, ptr %0, i64 64
  %4 = load volatile ptr, ptr %3, align 8
  %.not = icmp eq ptr %4, null
  br i1 %.not, label %7, label %5

5:                                                ; preds = %2
  %6 = load volatile ptr, ptr %3, align 8
  tail call void @_ZN17PackageEntryTable11packages_doEPFvP12PackageEntryE(ptr noundef nonnull align 8 dereferenceable(880) %6, ptr noundef %1) #16
  br label %7

7:                                                ; preds = %5, %2
  ret void
}